; Function Attrs: nounwind uwtable
define ptr @l_Lake_GitRepo_fetch(ptr noundef %0, ptr noundef %1, ptr noundef %2, ptr noundef %3) local_unnamed_addr #0 {
  tail call void @lean_inc_heartbeat() #3
  %5 = tail call noalias ptr @mi_malloc_small(i64 noundef 24) #3
  %6 = icmp eq ptr %5, null
  br i1 %6, label %7, label %lean_alloc_ctor.exit

7:                                                ; preds = %4
  tail call void @lean_internal_panic_out_of_memory() #4
  unreachable

lean_alloc_ctor.exit:                             ; preds = %4
  %8 = getelementptr inbounds nuw i8, ptr %5, i64 4
  store i32 1, ptr %5, align 4, !tbaa !8
  store i32 16908312, ptr %8, align 4
  %9 = getelementptr inbounds nuw i8, ptr %5, i64 8
  store ptr %1, ptr %9, align 8, !tbaa !12
  %10 = getelementptr inbounds nuw i8, ptr %5, i64 16
  store ptr inttoptr (i64 1 to ptr), ptr %10, align 8, !tbaa !12
  %11 = load ptr, ptr @l_Lake_GitRepo_fetch___closed__1, align 8, !tbaa !12
  tail call void @lean_inc_heartbeat() #3
  %12 = tail call noalias ptr @mi_malloc_small(i64 noundef 24) #3
  %13 = icmp eq ptr %12, null
  br i1 %13, label %14, label %lean_alloc_ctor.exit37

14:                                               ; preds = %lean_alloc_ctor.exit
  tail call void @lean_internal_panic_out_of_memory() #4
  unreachable

lean_alloc_ctor.exit37:                           ; preds = %lean_alloc_ctor.exit
  %15 = getelementptr inbounds nuw i8, ptr %12, i64 4
  store i32 1, ptr %12, align 4, !tbaa !8
  store i32 16908312, ptr %15, align 4
  %16 = getelementptr inbounds nuw i8, ptr %12, i64 8
  store ptr %11, ptr %16, align 8, !tbaa !12
  %17 = getelementptr inbounds nuw i8, ptr %12, i64 16
  store ptr %5, ptr %17, align 8, !tbaa !12
  %18 = load ptr, ptr @l_Lake_GitRepo_fetch___closed__2, align 8, !tbaa !12
  tail call void @lean_inc_heartbeat() #3
  %19 = tail call noalias ptr @mi_malloc_small(i64 noundef 24) #3
  %20 = icmp eq ptr %19, null
  br i1 %20, label %21, label %lean_alloc_ctor.exit38

21:                                               ; preds = %lean_alloc_ctor.exit37
  tail call void @lean_internal_panic_out_of_memory() #4
  unreachable

lean_alloc_ctor.exit38:                           ; preds = %lean_alloc_ctor.exit37
  %22 = getelementptr inbounds nuw i8, ptr %19, i64 4
  store i32 1, ptr %19, align 4, !tbaa !8
  store i32 16908312, ptr %22, align 4
  %23 = getelementptr inbounds nuw i8, ptr %19, i64 8
  store ptr %18, ptr %23, align 8, !tbaa !12
  %24 = getelementptr inbounds nuw i8, ptr %19, i64 16
  store ptr %12, ptr %24, align 8, !tbaa !12
  %25 = load ptr, ptr @l_Lake_GitRepo_fetch___closed__3, align 8, !tbaa !12
  tail call void @lean_inc_heartbeat() #3
  %26 = tail call noalias ptr @mi_malloc_small(i64 noundef 24) #3
  %27 = icmp eq ptr %26, null
  br i1 %27, label %28, label %lean_alloc_ctor.exit39

28:                                               ; preds = %lean_alloc_ctor.exit38
  tail call void @lean_internal_panic_out_of_memory() #4
  unreachable

lean_alloc_ctor.exit39:                           ; preds = %lean_alloc_ctor.exit38
  %29 = getelementptr inbounds nuw i8, ptr %26, i64 4
  store i32 1, ptr %26, align 4, !tbaa !8
  store i32 16908312, ptr %29, align 4
  %30 = getelementptr inbounds nuw i8, ptr %26, i64 8
  store ptr %25, ptr %30, align 8, !tbaa !12
  %31 = getelementptr inbounds nuw i8, ptr %26, i64 16
  store ptr %19, ptr %31, align 8, !tbaa !12
  %32 = tail call ptr @lean_array_mk(ptr noundef nonnull %26) #3
  tail call void @lean_inc_heartbeat() #3
  %33 = tail call noalias ptr @mi_malloc_small(i64 noundef 16) #3
  %34 = icmp eq ptr %33, null
  br i1 %34, label %35, label %lean_alloc_ctor.exit40

35:                                               ; preds = %lean_alloc_ctor.exit39
  tail call void @lean_internal_panic_out_of_memory() #4
  unreachable

lean_alloc_ctor.exit40:                           ; preds = %lean_alloc_ctor.exit39
  %36 = getelementptr inbounds nuw i8, ptr %33, i64 4
  store i32 1, ptr %33, align 4, !tbaa !8
  store i32 16842768, ptr %36, align 4
  %37 = getelementptr inbounds nuw i8, ptr %33, i64 8
  store ptr %0, ptr %37, align 8, !tbaa !12
  %38 = load ptr, ptr @l_Lake_GitRepo_captureGit_x3f___closed__1, align 8, !tbaa !12
  %39 = load ptr, ptr @l_Lake_Git_filterUrl_x3f___closed__1, align 8, !tbaa !12
  %40 = load ptr, ptr @l_Lake_GitRepo_captureGit_x3f___closed__2, align 8, !tbaa !12
  tail call void @lean_inc_heartbeat() #3
  %41 = tail call noalias ptr @mi_malloc_small(i64 noundef 56) #3
  %42 = icmp eq ptr %41, null
  br i1 %42, label %43, label %lean_alloc_ctor.exit41

43:                                               ; preds = %lean_alloc_ctor.exit40
  tail call void @lean_internal_panic_out_of_memory() #4
  unreachable

lean_alloc_ctor.exit41:                           ; preds = %lean_alloc_ctor.exit40
  %44 = getelementptr inbounds nuw i8, ptr %41, i64 4
  %45 = getelementptr inbounds nuw i8, ptr %41, i64 48
  store i64 1, ptr %45, align 8, !tbaa !4
  store i32 1, ptr %41, align 4, !tbaa !8
  store i32 327736, ptr %44, align 4
  %46 = getelementptr inbounds nuw i8, ptr %41, i64 8
  store ptr %38, ptr %46, align 8, !tbaa !12
  %47 = getelementptr inbounds nuw i8, ptr %41, i64 16
  store ptr %39, ptr %47, align 8, !tbaa !12
  %48 = getelementptr inbounds nuw i8, ptr %41, i64 24
  store ptr %32, ptr %48, align 8, !tbaa !12
  %49 = getelementptr inbounds nuw i8, ptr %41, i64 32
  store ptr %33, ptr %49, align 8, !tbaa !12
  %50 = getelementptr inbounds nuw i8, ptr %41, i64 40
  store ptr %40, ptr %50, align 8, !tbaa !12
  %51 = tail call ptr @l_Lake_proc(ptr noundef nonnull %41, i8 noundef zeroext 1, ptr noundef %2, ptr noundef %3) #3
  ret ptr %51
}